target datalayout = "e-m:e-p270:32:32-p271:32:32-p272:64:64-i64:64-i128:128-f80:128-n8:16:32:64-S128"
target triple = "x86_64-pc-linux-gnu"

%struct.OSQPSolver = type { ptr, ptr, ptr, ptr }
%struct.OSQPWorkspace_ = type { ptr, ptr, ptr, ptr, ptr, ptr, ptr, ptr, ptr, ptr, ptr, ptr, ptr, ptr, ptr, ptr, ptr, double, double, double, double, ptr, ptr, ptr, ptr, ptr, ptr, ptr, ptr, ptr, double, double, double, ptr, i64, i64, i64, i64, ptr, i64, double }
%struct.OSQPSettings = type { i64, i32, i64, i64, i64, i64, i64, i64, double, i64, double, double, i64, i64, double, i32, i64, i64, double, double, i64, double, double, double, double, i64, i64, i64, double, double, i64 }
%struct.OSQPInfo = type { [32 x i8], i64, i64, double, double, double, double, double, i64, i64, double, double, double, double, double, double, double, double }

@.str.3 = private unnamed_addr constant [2 x i8] c"\0A\00", align 1
@.str.37 = private unnamed_addr constant [4 x i8] c"%4i\00", align 1
@.str.38 = private unnamed_addr constant [8 x i8] c" %12.4e\00", align 1
@.str.39 = private unnamed_addr constant [8 x i8] c"  %9.2e\00", align 1
@.str.40 = private unnamed_addr constant [9 x i8] c"  %9.2e*\00", align 1
@.str.41 = private unnamed_addr constant [9 x i8] c"  %9.2e \00", align 1
@.str.42 = private unnamed_addr constant [9 x i8] c"  %9.2es\00", align 1

; Function Attrs: nounwind uwtable
define void @print_summary(ptr noundef %0) #0 {
  %2 = alloca ptr, align 8
  %3 = alloca ptr, align 8
  %4 = alloca ptr, align 8
  %5 = alloca ptr, align 8
  store ptr %0, ptr %2, align 8, !tbaa !11
  call void @llvm.lifetime.start.p0(i64 8, ptr %3) #4
  %6 = load ptr, ptr %2, align 8, !tbaa !11
  %7 = getelementptr inbounds nuw %struct.OSQPSolver, ptr %6, i32 0, i32 2
  %8 = load ptr, ptr %7, align 8, !tbaa !56
  store ptr %8, ptr %3, align 8, !tbaa !11
  call void @llvm.lifetime.start.p0(i64 8, ptr %4) #4
  %9 = load ptr, ptr %2, align 8, !tbaa !11
  %10 = getelementptr inbounds nuw %struct.OSQPSolver, ptr %9, i32 0, i32 0
  %11 = load ptr, ptr %10, align 8, !tbaa !24
  store ptr %11, ptr %4, align 8, !tbaa !11
  call void @llvm.lifetime.start.p0(i64 8, ptr %5) #4
  %12 = load ptr, ptr %2, align 8, !tbaa !11
  %13 = getelementptr inbounds nuw %struct.OSQPSolver, ptr %12, i32 0, i32 3
  %14 = load ptr, ptr %13, align 8, !tbaa !12
  store ptr %14, ptr %5, align 8, !tbaa !15
  %15 = load ptr, ptr %3, align 8, !tbaa !11
  %16 = getelementptr inbounds nuw %struct.OSQPInfo, ptr %15, i32 0, i32 8
  %17 = load i64, ptr %16, align 8, !tbaa !57
  %18 = trunc i64 %17 to i32
  %19 = call i32 (ptr, ...) @printf(ptr noundef @.str.37, i32 noundef %18)
  %20 = load ptr, ptr %3, align 8, !tbaa !11
  %21 = getelementptr inbounds nuw %struct.OSQPInfo, ptr %20, i32 0, i32 3
  %22 = load double, ptr %21, align 8, !tbaa !59
  %23 = call i32 (ptr, ...) @printf(ptr noundef @.str.38, double noundef %22)
  %24 = load ptr, ptr %3, align 8, !tbaa !11
  %25 = getelementptr inbounds nuw %struct.OSQPInfo, ptr %24, i32 0, i32 5
  %26 = load double, ptr %25, align 8, !tbaa !60
  %27 = call i32 (ptr, ...) @printf(ptr noundef @.str.39, double noundef %26)
  %28 = load ptr, ptr %3, align 8, !tbaa !11
  %29 = getelementptr inbounds nuw %struct.OSQPInfo, ptr %28, i32 0, i32 6
  %30 = load double, ptr %29, align 8, !tbaa !61
  %31 = call i32 (ptr, ...) @printf(ptr noundef @.str.39, double noundef %30)
  %32 = load ptr, ptr %3, align 8, !tbaa !11
  %33 = getelementptr inbounds nuw %struct.OSQPInfo, ptr %32, i32 0, i32 7
  %34 = load double, ptr %33, align 8, !tbaa !62
  %35 = call i32 (ptr, ...) @printf(ptr noundef @.str.39, double noundef %34)
  %36 = load ptr, ptr %3, align 8, !tbaa !11
  %37 = getelementptr inbounds nuw %struct.OSQPInfo, ptr %36, i32 0, i32 17
  %38 = load double, ptr %37, align 8, !tbaa !63
  %39 = call i32 (ptr, ...) @printf(ptr noundef @.str.39, double noundef %38)
  %40 = load ptr, ptr %2, align 8, !tbaa !11
  %41 = getelementptr inbounds nuw %struct.OSQPSolver, ptr %40, i32 0, i32 3
  %42 = load ptr, ptr %41, align 8, !tbaa !12
  %43 = getelementptr inbounds nuw %struct.OSQPWorkspace_, ptr %42, i32 0, i32 39
  %44 = load i64, ptr %43, align 8, !tbaa !64
  %45 = icmp ne i64 %44, 0
  br i1 %45, label %46, label %51

46:                                               ; preds = %1
  %47 = load ptr, ptr %4, align 8, !tbaa !11
  %48 = getelementptr inbounds nuw %struct.OSQPSettings, ptr %47, i32 0, i32 8
  %49 = load double, ptr %48, align 8, !tbaa !41
  %50 = call i32 (ptr, ...) @printf(ptr noundef @.str.40, double noundef %49)
  br label %56

51:                                               ; preds = %1
  %52 = load ptr, ptr %4, align 8, !tbaa !11
  %53 = getelementptr inbounds nuw %struct.OSQPSettings, ptr %52, i32 0, i32 8
  %54 = load double, ptr %53, align 8, !tbaa !41
  %55 = call i32 (ptr, ...) @printf(ptr noundef @.str.41, double noundef %54)
  br label %56

56:                                               ; preds = %51, %46
  %57 = load ptr, ptr %5, align 8, !tbaa !15
  %58 = getelementptr inbounds nuw %struct.OSQPWorkspace_, ptr %57, i32 0, i32 34
  %59 = load i64, ptr %58, align 8, !tbaa !65
  %60 = icmp ne i64 %59, 0
  br i1 %60, label %61, label %70

61:                                               ; preds = %56
  %62 = load ptr, ptr %3, align 8, !tbaa !11
  %63 = getelementptr inbounds nuw %struct.OSQPInfo, ptr %62, i32 0, i32 11
  %64 = load double, ptr %63, align 8, !tbaa !66
  %65 = load ptr, ptr %3, align 8, !tbaa !11
  %66 = getelementptr inbounds nuw %struct.OSQPInfo, ptr %65, i32 0, i32 12
  %67 = load double, ptr %66, align 8, !tbaa !67
  %68 = fadd double %64, %67
  %69 = call i32 (ptr, ...) @printf(ptr noundef @.str.42, double noundef %68)
  br label %79

70:                                               ; preds = %56
  %71 = load ptr, ptr %3, align 8, !tbaa !11
  %72 = getelementptr inbounds nuw %struct.OSQPInfo, ptr %71, i32 0, i32 13
  %73 = load double, ptr %72, align 8, !tbaa !68
  %74 = load ptr, ptr %3, align 8, !tbaa !11
  %75 = getelementptr inbounds nuw %struct.OSQPInfo, ptr %74, i32 0, i32 12
  %76 = load double, ptr %75, align 8, !tbaa !67
  %77 = fadd double %73, %76
  %78 = call i32 (ptr, ...) @printf(ptr noundef @.str.42, double noundef %77)
  br label %79

79:                                               ; preds = %70, %61
  %80 = call i32 (ptr, ...) @printf(ptr noundef @.str.3)
  %81 = load ptr, ptr %5, align 8, !tbaa !15
  %82 = getelementptr inbounds nuw %struct.OSQPWorkspace_, ptr %81, i32 0, i32 37
  store i64 1, ptr %82, align 8, !tbaa !69
  call void @llvm.lifetime.end.p0(i64 8, ptr %5) #4
  call void @llvm.lifetime.end.p0(i64 8, ptr %4) #4
  call void @llvm.lifetime.end.p0(i64 8, ptr %3) #4
  ret void
}