; Function Attrs: nofree nounwind uwtable
define void @print_summary(ptr noundef readonly captures(none) %0) local_unnamed_addr #2 {
  %2 = getelementptr inbounds nuw i8, ptr %0, i64 16
  %3 = load ptr, ptr %2, align 8, !tbaa !48
  %4 = load ptr, ptr %0, align 8, !tbaa !18
  %5 = getelementptr inbounds nuw i8, ptr %0, i64 24
  %6 = load ptr, ptr %5, align 8, !tbaa !6
  %7 = getelementptr inbounds nuw i8, ptr %3, i64 88
  %8 = load i64, ptr %7, align 8, !tbaa !49
  %9 = trunc i64 %8 to i32
  %10 = tail call i32 (ptr, ...) @printf(ptr noundef nonnull dereferenceable(1) @.str.37, i32 noundef %9)
  %11 = getelementptr inbounds nuw i8, ptr %3, i64 48
  %12 = load double, ptr %11, align 8, !tbaa !51
  %13 = tail call i32 (ptr, ...) @printf(ptr noundef nonnull dereferenceable(1) @.str.38, double noundef %12)
  %14 = getelementptr inbounds nuw i8, ptr %3, i64 64
  %15 = load double, ptr %14, align 8, !tbaa !52
  %16 = tail call i32 (ptr, ...) @printf(ptr noundef nonnull dereferenceable(1) @.str.39, double noundef %15)
  %17 = getelementptr inbounds nuw i8, ptr %3, i64 72
  %18 = load double, ptr %17, align 8, !tbaa !53
  %19 = tail call i32 (ptr, ...) @printf(ptr noundef nonnull dereferenceable(1) @.str.39, double noundef %18)
  %20 = getelementptr inbounds nuw i8, ptr %3, i64 80
  %21 = load double, ptr %20, align 8, !tbaa !54
  %22 = tail call i32 (ptr, ...) @printf(ptr noundef nonnull dereferenceable(1) @.str.39, double noundef %21)
  %23 = getelementptr inbounds nuw i8, ptr %3, i64 160
  %24 = load double, ptr %23, align 8, !tbaa !55
  %25 = tail call i32 (ptr, ...) @printf(ptr noundef nonnull dereferenceable(1) @.str.39, double noundef %24)
  %26 = load ptr, ptr %5, align 8, !tbaa !6
  %27 = getelementptr inbounds nuw i8, ptr %26, i64 312
  %28 = load i64, ptr %27, align 8, !tbaa !56
  %.not = icmp eq i64 %28, 0
  %29 = getelementptr inbounds nuw i8, ptr %4, i64 64
  %30 = load double, ptr %29, align 8, !tbaa !35
  %.str.41..str.40 = select i1 %.not, ptr @.str.41, ptr @.str.40
  %31 = tail call i32 (ptr, ...) @printf(ptr noundef nonnull dereferenceable(1) %.str.41..str.40, double noundef %30)
  %32 = getelementptr inbounds nuw i8, ptr %6, i64 272
  %33 = load i64, ptr %32, align 8, !tbaa !57
  %.not18 = icmp eq i64 %33, 0
  %.sink21 = select i1 %.not18, i64 128, i64 112
  %34 = getelementptr inbounds nuw i8, ptr %3, i64 %.sink21
  %35 = load double, ptr %34, align 8, !tbaa !58
  %36 = getelementptr inbounds nuw i8, ptr %3, i64 120
  %37 = load double, ptr %36, align 8, !tbaa !59
  %38 = fadd double %35, %37
  %39 = tail call i32 (ptr, ...) @printf(ptr noundef nonnull dereferenceable(1) @.str.42, double noundef %38)
  %putchar = tail call i32 @putchar(i32 10)
  %40 = getelementptr inbounds nuw i8, ptr %6, i64 296
  store i64 1, ptr %40, align 8, !tbaa !60
  ret void
}